target datalayout = "e-m:e-p270:32:32-p271:32:32-p272:64:64-i64:64-i128:128-f80:128-n8:16:32:64-S128"
target triple = "x86_64-pc-linux-gnu"

%struct.UBiDi = type { ptr, ptr, i32, i32, i32, i32, i32, i32, i32, i32, i32, ptr, ptr, ptr, ptr, ptr, ptr, i8, i8, ptr, ptr, i8, i32, i32, i8, i8, i8, ptr, i32, ptr, i32, ptr, i32, i32, i32, i32, i32, ptr, [10 x %struct.Para], i32, ptr, [1 x %struct.Run], i32, ptr, [5 x %struct.Isolate], %struct.InsertPoints, i32, ptr, ptr }
%struct.Para = type { i32, i32 }
%struct.Run = type { i32, i32, i32 }
%struct.Isolate = type { i32, i32, i32, i16 }
%struct.InsertPoints = type { i32, i32, i32, i32, ptr }

; Function Attrs: inlinehint mustprogress nounwind uwtable
define internal noundef signext i8 @_ZL9U_FAILURE10UErrorCode(i32 noundef %0) #2 {
  %2 = alloca i32, align 4
  store i32 %0, ptr %2, align 4, !tbaa !11
  %3 = load i32, ptr %2, align 4, !tbaa !11
  %4 = icmp sgt i32 %3, 0
  %5 = zext i1 %4 to i8
  ret i8 %5
}

; Function Attrs: mustprogress uwtable
define i32 @ubidi_getVisualRun_77(ptr noundef %0, i32 noundef %1, ptr noundef %2, ptr noundef %3) #0 {
  %5 = alloca i32, align 4
  %6 = alloca ptr, align 8
  %7 = alloca i32, align 4
  %8 = alloca ptr, align 8
  %9 = alloca ptr, align 8
  %10 = alloca i32, align 4
  %11 = alloca i32, align 4
  %12 = alloca i32, align 4
  store ptr %0, ptr %6, align 8, !tbaa !3
  store i32 %1, ptr %7, align 4, !tbaa !8
  store ptr %2, ptr %8, align 8, !tbaa !57
  store ptr %3, ptr %9, align 8, !tbaa !57
  call void @llvm.lifetime.start.p0(i64 4, ptr %10) #8
  call void @llvm.lifetime.start.p0(i64 4, ptr %11) #8
  store i32 0, ptr %11, align 4, !tbaa !11
  br label %13

13:                                               ; preds = %4
  %14 = load ptr, ptr %6, align 8, !tbaa !3
  %15 = icmp ne ptr %14, null
  br i1 %15, label %16, label %37

16:                                               ; preds = %13
  %17 = load ptr, ptr %6, align 8, !tbaa !3
  %18 = getelementptr inbounds nuw %struct.UBiDi, ptr %17, i32 0, i32 0
  %19 = load ptr, ptr %18, align 8, !tbaa !13
  %20 = load ptr, ptr %6, align 8, !tbaa !3
  %21 = icmp eq ptr %19, %20
  br i1 %21, label %38, label %22

22:                                               ; preds = %16
  %23 = load ptr, ptr %6, align 8, !tbaa !3
  %24 = getelementptr inbounds nuw %struct.UBiDi, ptr %23, i32 0, i32 0
  %25 = load ptr, ptr %24, align 8, !tbaa !13
  %26 = icmp ne ptr %25, null
  br i1 %26, label %27, label %37

27:                                               ; preds = %22
  %28 = load ptr, ptr %6, align 8, !tbaa !3
  %29 = getelementptr inbounds nuw %struct.UBiDi, ptr %28, i32 0, i32 0
  %30 = load ptr, ptr %29, align 8, !tbaa !13
  %31 = getelementptr inbounds nuw %struct.UBiDi, ptr %30, i32 0, i32 0
  %32 = load ptr, ptr %31, align 8, !tbaa !13
  %33 = load ptr, ptr %6, align 8, !tbaa !3
  %34 = getelementptr inbounds nuw %struct.UBiDi, ptr %33, i32 0, i32 0
  %35 = load ptr, ptr %34, align 8, !tbaa !13
  %36 = icmp eq ptr %32, %35
  br i1 %36, label %38, label %37

37:                                               ; preds = %27, %22, %13
  store i32 27, ptr %11, align 4, !tbaa !11
  store i32 0, ptr %5, align 4
  store i32 1, ptr %12, align 4
  br label %115

38:                                               ; preds = %27, %16
  br label %39

39:                                               ; preds = %38
  br label %40

40:                                               ; preds = %39
  %41 = load ptr, ptr %6, align 8, !tbaa !3
  %42 = call signext i8 @ubidi_getRuns_77(ptr noundef %41, ptr noundef %11)
  %43 = load i32, ptr %11, align 4, !tbaa !11
  %44 = call noundef signext i8 @_ZL9U_FAILURE10UErrorCode(i32 noundef %43)
  %45 = icmp ne i8 %44, 0
  br i1 %45, label %46, label %47

46:                                               ; preds = %40
  store i32 0, ptr %5, align 4
  store i32 1, ptr %12, align 4
  br label %115

47:                                               ; preds = %40
  br label %48

48:                                               ; preds = %47
  %49 = load i32, ptr %7, align 4, !tbaa !8
  %50 = icmp slt i32 %49, 0
  br i1 %50, label %57, label %51

51:                                               ; preds = %48
  %52 = load i32, ptr %7, align 4, !tbaa !8
  %53 = load ptr, ptr %6, align 8, !tbaa !3
  %54 = getelementptr inbounds nuw %struct.UBiDi, ptr %53, i32 0, i32 39
  %55 = load i32, ptr %54, align 8, !tbaa !47
  %56 = icmp sge i32 %52, %55
  br i1 %56, label %57, label %58

57:                                               ; preds = %51, %48
  store i32 1, ptr %11, align 4, !tbaa !11
  store i32 0, ptr %5, align 4
  store i32 1, ptr %12, align 4
  br label %115

58:                                               ; preds = %51
  br label %59

59:                                               ; preds = %58
  br label %60

60:                                               ; preds = %59
  %61 = load ptr, ptr %6, align 8, !tbaa !3
  %62 = getelementptr inbounds nuw %struct.UBiDi, ptr %61, i32 0, i32 40
  %63 = load ptr, ptr %62, align 8, !tbaa !36
  %64 = load i32, ptr %7, align 4, !tbaa !8
  %65 = sext i32 %64 to i64
  %66 = getelementptr inbounds %struct.Run, ptr %63, i64 %65
  %67 = getelementptr inbounds nuw %struct.Run, ptr %66, i32 0, i32 0
  %68 = load i32, ptr %67, align 4, !tbaa !60
  store i32 %68, ptr %10, align 4, !tbaa !8
  %69 = load ptr, ptr %8, align 8, !tbaa !57
  %70 = icmp ne ptr %69, null
  br i1 %70, label %71, label %77

71:                                               ; preds = %60
  %72 = load i32, ptr %10, align 4, !tbaa !8
  %73 = sext i32 %72 to i64
  %74 = and i64 %73, -2147483649
  %75 = trunc i64 %74 to i32
  %76 = load ptr, ptr %8, align 8, !tbaa !57
  store i32 %75, ptr %76, align 4, !tbaa !8
  br label %77

77:                                               ; preds = %71, %60
  %78 = load ptr, ptr %9, align 8, !tbaa !57
  %79 = icmp ne ptr %78, null
  br i1 %79, label %80, label %112

80:                                               ; preds = %77
  %81 = load i32, ptr %7, align 4, !tbaa !8
  %82 = icmp sgt i32 %81, 0
  br i1 %82, label %83, label %103

83:                                               ; preds = %80
  %84 = load ptr, ptr %6, align 8, !tbaa !3
  %85 = getelementptr inbounds nuw %struct.UBiDi, ptr %84, i32 0, i32 40
  %86 = load ptr, ptr %85, align 8, !tbaa !36
  %87 = load i32, ptr %7, align 4, !tbaa !8
  %88 = sext i32 %87 to i64
  %89 = getelementptr inbounds %struct.Run, ptr %86, i64 %88
  %90 = getelementptr inbounds nuw %struct.Run, ptr %89, i32 0, i32 1
  %91 = load i32, ptr %90, align 4, !tbaa !62
  %92 = load ptr, ptr %6, align 8, !tbaa !3
  %93 = getelementptr inbounds nuw %struct.UBiDi, ptr %92, i32 0, i32 40
  %94 = load ptr, ptr %93, align 8, !tbaa !36
  %95 = load i32, ptr %7, align 4, !tbaa !8
  %96 = sub nsw i32 %95, 1
  %97 = sext i32 %96 to i64
  %98 = getelementptr inbounds %struct.Run, ptr %94, i64 %97
  %99 = getelementptr inbounds nuw %struct.Run, ptr %98, i32 0, i32 1
  %100 = load i32, ptr %99, align 4, !tbaa !62
  %101 = sub nsw i32 %91, %100
  %102 = load ptr, ptr %9, align 8, !tbaa !57
  store i32 %101, ptr %102, align 4, !tbaa !8
  br label %111

103:                                              ; preds = %80
  %104 = load ptr, ptr %6, align 8, !tbaa !3
  %105 = getelementptr inbounds nuw %struct.UBiDi, ptr %104, i32 0, i32 40
  %106 = load ptr, ptr %105, align 8, !tbaa !36
  %107 = getelementptr inbounds %struct.Run, ptr %106, i64 0
  %108 = getelementptr inbounds nuw %struct.Run, ptr %107, i32 0, i32 1
  %109 = load i32, ptr %108, align 4, !tbaa !62
  %110 = load ptr, ptr %9, align 8, !tbaa !57
  store i32 %109, ptr %110, align 4, !tbaa !8
  br label %111

111:                                              ; preds = %103, %83
  br label %112

112:                                              ; preds = %111, %77
  %113 = load i32, ptr %10, align 4, !tbaa !8
  %114 = lshr i32 %113, 31
  store i32 %114, ptr %5, align 4
  store i32 1, ptr %12, align 4
  br label %115

115:                                              ; preds = %112, %57, %46, %37
  call void @llvm.lifetime.end.p0(i64 4, ptr %11) #8
  call void @llvm.lifetime.end.p0(i64 4, ptr %10) #8
  %116 = load i32, ptr %5, align 4
  ret i32 %116
}