; Function Attrs: mustprogress uwtable
define range(i32 0, 2) i32 @ubidi_getVisualRun_77(ptr noundef %0, i32 noundef %1, ptr noundef writeonly %2, ptr noundef writeonly %3) local_unnamed_addr #0 {
  %.not = icmp eq ptr %0, null
  br i1 %.not, label %39, label %5

5:                                                ; preds = %4
  %6 = load ptr, ptr %0, align 8, !tbaa !7
  %7 = icmp eq ptr %6, %0
  br i1 %7, label %12, label %8

8:                                                ; preds = %5
  %.not30 = icmp eq ptr %6, null
  br i1 %.not30, label %39, label %9

9:                                                ; preds = %8
  %10 = load ptr, ptr %6, align 8, !tbaa !7
  %11 = icmp eq ptr %10, %6
  br i1 %11, label %12, label %39

12:                                               ; preds = %5, %9
  %13 = tail call signext i8 @ubidi_getRuns_77(ptr noundef nonnull %0, ptr nonnull poison)
  %14 = icmp slt i32 %1, 0
  br i1 %14, label %39, label %15

15:                                               ; preds = %12
  %16 = getelementptr inbounds nuw i8, ptr %0, i64 296
  %17 = load i32, ptr %16, align 8, !tbaa !44
  %.not32 = icmp slt i32 %1, %17
  br i1 %.not32, label %18, label %39

18:                                               ; preds = %15
  %19 = getelementptr inbounds nuw i8, ptr %0, i64 304
  %20 = load ptr, ptr %19, align 8, !tbaa !33
  %21 = zext nneg i32 %1 to i64
  %22 = getelementptr inbounds nuw %struct.Run, ptr %20, i64 %21
  %23 = load i32, ptr %22, align 4, !tbaa !55
  %.not33 = icmp eq ptr %2, null
  br i1 %.not33, label %26, label %24

24:                                               ; preds = %18
  %25 = and i32 %23, 2147483647
  store i32 %25, ptr %2, align 4, !tbaa !53
  br label %26

26:                                               ; preds = %24, %18
  %.not34 = icmp eq ptr %3, null
  br i1 %.not34, label %37, label %27

27:                                               ; preds = %26
  %.not35 = icmp eq i32 %1, 0
  br i1 %.not35, label %34, label %28

28:                                               ; preds = %27
  %29 = getelementptr inbounds nuw %struct.Run, ptr %20, i64 %21, i32 1
  %30 = load i32, ptr %29, align 4, !tbaa !57
  %31 = getelementptr i8, ptr %22, i64 -8
  %32 = load i32, ptr %31, align 4, !tbaa !57
  %33 = sub nsw i32 %30, %32
  br label %.sink.split

34:                                               ; preds = %27
  %35 = getelementptr inbounds nuw i8, ptr %20, i64 4
  %36 = load i32, ptr %35, align 4, !tbaa !57
  br label %.sink.split

.sink.split:                                      ; preds = %34, %28
  %.sink = phi i32 [ %33, %28 ], [ %36, %34 ]
  store i32 %.sink, ptr %3, align 4, !tbaa !53
  br label %37

37:                                               ; preds = %.sink.split, %26
  %38 = lshr i32 %23, 31
  br label %39

39:                                               ; preds = %12, %15, %4, %8, %9, %37
  %.0 = phi i32 [ %38, %37 ], [ 0, %9 ], [ 0, %8 ], [ 0, %4 ], [ 0, %15 ], [ 0, %12 ]
  ret i32 %.0
}